libkyototycoon.so.2 libkyototycoon2 #MINVER#
 _ZN11kyototycoon10PollerCoreC1Ev@Base 0.9.23
 _ZN11kyototycoon10PollerCoreD1Ev@Base 0.9.23
 _ZN11kyototycoon10SocketCoreC1Ev@Base 0.9.23
 _ZN11kyototycoon10SocketCoreD1Ev@Base 0.9.23
 _ZN11kyototycoon10datestrwwwEdiiPc@Base 0.9.23
 _ZN11kyototycoon10datestrwwwEliPc@Base 0.9.23
 _ZN11kyototycoon11datestrhttpEliPc@Base 0.9.23
 _ZN11kyototycoon11getcalendarEliPiS0_S0_S0_S0_S0_@Base 0.9.23
 _ZN11kyototycoon12ServerSocket10descriptorEv@Base 0.9.23
 _ZN11kyototycoon12ServerSocket10expressionEv@Base 0.9.23
 _ZN11kyototycoon12ServerSocket11event_flagsEv@Base 0.9.23
 _ZN11kyototycoon12ServerSocket11set_timeoutEd@Base 0.9.23
 _ZN11kyototycoon12ServerSocket15set_event_flagsEj@Base 0.9.23
 _ZN11kyototycoon12ServerSocket4openERKSs@Base 0.9.23
 _ZN11kyototycoon12ServerSocket5abortEv@Base 0.9.23
 _ZN11kyototycoon12ServerSocket5closeEv@Base 0.9.23
 _ZN11kyototycoon12ServerSocket5errorEv@Base 0.9.23
 _ZN11kyototycoon12ServerSocket6acceptEPNS_6SocketE@Base 0.9.23
 _ZN11kyototycoon12ServerSocketC1Ev@Base 0.9.23
 _ZN11kyototycoon12ServerSocketC2Ev@Base 0.9.23
 _ZN11kyototycoon12ServerSocketD0Ev@Base 0.9.23
 _ZN11kyototycoon12ServerSocketD1Ev@Base 0.9.23
 _ZN11kyototycoon12ServerSocketD2Ev@Base 0.9.23
 _ZN11kyototycoon12getlocaltimeElP2tm@Base 0.9.23
 _ZN11kyototycoon13SharedLibrary4openEPKc@Base 0.9.23
 _ZN11kyototycoon13SharedLibrary5closeEv@Base 0.9.23
 _ZN11kyototycoon13SharedLibrary6symbolEPKc@Base 0.9.23
 _ZN11kyototycoon13SharedLibraryC1Ev@Base 0.9.23
 _ZN11kyototycoon13SharedLibraryC2Ev@Base 0.9.23
 _ZN11kyototycoon13SharedLibraryD1Ev@Base 0.9.23
 _ZN11kyototycoon13SharedLibraryD2Ev@Base 0.9.23
 _ZN11kyototycoon14ThreadedServer8SESSIDLEE@Base 0.9.23
 _ZN11kyototycoon14ThreadedServer9SESSTIMERE@Base 0.9.23
 _ZN11kyototycoon14executecommandERKSt6vectorISsSaISsEE@Base 0.9.23
 _ZN11kyototycoon16ServerSocketCoreC1Ev@Base 0.9.23
 _ZN11kyototycoon16ServerSocketCoreD1Ev@Base 0.9.23
 _ZN11kyototycoon20setkillsignalhandlerEPFviE@Base 0.9.23
 _ZN11kyototycoon6LIBREVE@Base 0.9.23
 _ZN11kyototycoon6LIBVERE@Base 0.9.23
 _ZN11kyototycoon6Poller4nextEv@Base 0.9.23
 _ZN11kyototycoon6Poller4openEv@Base 0.9.23
 _ZN11kyototycoon6Poller4undoEPNS_8PollableE@Base 0.9.23
 _ZN11kyototycoon6Poller4waitEd@Base 0.9.23
 _ZN11kyototycoon6Poller5abortEv@Base 0.9.23
 _ZN11kyototycoon6Poller5closeEv@Base 0.9.23
 _ZN11kyototycoon6Poller5countEv@Base 0.9.23
 _ZN11kyototycoon6Poller5errorEv@Base 0.9.23
 _ZN11kyototycoon6Poller5flushEv@Base 0.9.23
 _ZN11kyototycoon6Poller7depositEPNS_8PollableE@Base 0.9.23
 _ZN11kyototycoon6Poller8withdrawEPNS_8PollableE@Base 0.9.23
 _ZN11kyototycoon6PollerC1Ev@Base 0.9.23
 _ZN11kyototycoon6PollerC2Ev@Base 0.9.23
 _ZN11kyototycoon6PollerD1Ev@Base 0.9.23
 _ZN11kyototycoon6PollerD2Ev@Base 0.9.23
 _ZN11kyototycoon6Socket10descriptorEv@Base 0.9.23
 _ZN11kyototycoon6Socket10expressionEv@Base 0.9.23
 _ZN11kyototycoon6Socket11event_flagsEv@Base 0.9.23
 _ZN11kyototycoon6Socket11set_timeoutEd@Base 0.9.23
 _ZN11kyototycoon6Socket12receive_byteEv@Base 0.9.23
 _ZN11kyototycoon6Socket12receive_lineEPvm@Base 0.9.23
 _ZN11kyototycoon6Socket15set_event_flagsEj@Base 0.9.23
 _ZN11kyototycoon6Socket16get_host_addressERKSs@Base 0.9.23
 _ZN11kyototycoon6Socket17undo_receive_byteEi@Base 0.9.23
 _ZN11kyototycoon6Socket19get_local_host_nameEv@Base 0.9.23
 _ZN11kyototycoon6Socket4openERKSs@Base 0.9.23
 _ZN11kyototycoon6Socket4sendEPKvm@Base 0.9.23
 _ZN11kyototycoon6Socket4sendERKSs@Base 0.9.23
 _ZN11kyototycoon6Socket5abortEv@Base 0.9.23
 _ZN11kyototycoon6Socket5closeEb@Base 0.9.23
 _ZN11kyototycoon6Socket5errorEv@Base 0.9.23
 _ZN11kyototycoon6Socket6printfEPKcz@Base 0.9.23
 _ZN11kyototycoon6Socket7receiveEPvm@Base 0.9.23
 _ZN11kyototycoon6Socket7vprintfEPKcP13__va_list_tag@Base 0.9.23
 _ZN11kyototycoon6Socket9left_sizeEv@Base 0.9.23
 _ZN11kyototycoon6SocketC1Ev@Base 0.9.23
 _ZN11kyototycoon6SocketC2Ev@Base 0.9.23
 _ZN11kyototycoon6SocketD0Ev@Base 0.9.23
 _ZN11kyototycoon6SocketD1Ev@Base 0.9.23
 _ZN11kyototycoon6SocketD2Ev@Base 0.9.23
 _ZN11kyototycoon6jetlagEv@Base 0.9.23
 _ZN11kyototycoon7TimedDB7Visitor3NOPE@Base 0.9.23
 _ZN11kyototycoon7TimedDB7Visitor6REMOVEE@Base 0.9.23
 _ZN11kyototycoon7VERSIONE@Base 0.9.23
 _ZN11kyototycoon8FEATURESE@Base 0.9.23
 _ZN11kyototycoon8PollableC2Ev@Base 0.9.23
 _ZN11kyototycoon8PollableD0Ev@Base 0.9.23
 _ZN11kyototycoon8PollableD1Ev@Base 0.9.23
 _ZN11kyototycoon8PollableD2Ev@Base 0.9.23
 _ZN11kyototycoon8mkgmtimeEP2tm@Base 0.9.23
 _ZN11kyototycoon9daemonizeEv@Base 0.9.23
 _ZN11kyototycoon9dayofweekEiii@Base 0.9.23
 _ZN11kyototycoon9getgmtimeElP2tm@Base 0.9.23
 _ZN11kyototycoon9strmktimeEPKc@Base 0.9.23
 _ZN12kyotocabinet10vstrprintfEPSsPKcP13__va_list_tag@Base 0.9.23
 _ZN12kyotocabinet4atoiEPKc@Base 0.9.23
 _ZN12kyotocabinet5atoihEPKc@Base 0.9.23
 _ZN12kyotocabinet6chknanEd@Base 0.9.23
 _ZN12kyotocabinet7strifwmEPKcS1_@Base 0.9.23
 _ZN12kyotocabinet9strprintfEPSsPKcz@Base 0.9.23
 _ZN9__gnu_cxx13new_allocatorIPN11kyototycoon8PollableEE7destroyEPS3_@Base 0.9.23
 _ZN9__gnu_cxx13new_allocatorIPN11kyototycoon8PollableEE9constructEPS3_RKS3_@Base 0.9.23
 _ZN9__gnu_cxx13new_allocatorIPN11kyototycoon8PollableEEC2Ev@Base 0.9.23
 _ZN9__gnu_cxx13new_allocatorIPN11kyototycoon8PollableEED2Ev@Base 0.9.23
 _ZN9__gnu_cxx13new_allocatorISt13_Rb_tree_nodeIPN11kyototycoon8PollableEEE10deallocateEPS5_m@Base 0.9.23
 _ZN9__gnu_cxx13new_allocatorISt13_Rb_tree_nodeIPN11kyototycoon8PollableEEE8allocateEmPKv@Base 0.9.23
 _ZN9__gnu_cxx13new_allocatorISt13_Rb_tree_nodeIPN11kyototycoon8PollableEEEC2Ev@Base 0.9.23
 _ZN9__gnu_cxx13new_allocatorISt13_Rb_tree_nodeIPN11kyototycoon8PollableEEED2Ev@Base 0.9.23
 _ZN9__gnu_cxx17__normal_iteratorIPKSsSt6vectorISsSaISsEEEC1ERKS2_@Base 0.9.23
 _ZN9__gnu_cxxeqIPKSsSt6vectorISsSaISsEEEEbRKNS_17__normal_iteratorIT_T0_EESB_@Base 0.9.23
 _ZNK9__gnu_cxx13new_allocatorISt13_Rb_tree_nodeIPN11kyototycoon8PollableEEE8max_sizeEv@Base 0.9.23
 _ZNK9__gnu_cxx17__normal_iteratorIPKSsSt6vectorISsSaISsEEE4baseEv@Base 0.9.23
 _ZNKSt17_Rb_tree_iteratorIPN11kyototycoon8PollableEEeqERKS3_@Base 0.9.23
 _ZNKSt17_Rb_tree_iteratorIPN11kyototycoon8PollableEEneERKS3_@Base 0.9.23
 _ZNKSt23_Rb_tree_const_iteratorIPN11kyototycoon8PollableEEdeEv@Base 0.9.23
 _ZNKSt23_Rb_tree_const_iteratorIPN11kyototycoon8PollableEEneERKS3_@Base 0.9.23
 _ZNKSt3setIPN11kyototycoon8PollableESt4lessIS2_ESaIS2_EE3endEv@Base 0.9.23
 _ZNKSt3setIPN11kyototycoon8PollableESt4lessIS2_ESaIS2_EE4sizeEv@Base 0.9.23
 _ZNKSt3setIPN11kyototycoon8PollableESt4lessIS2_ESaIS2_EE5beginEv@Base 0.9.23
 _ZNKSt3setIPN11kyototycoon8PollableESt4lessIS2_ESaIS2_EE5emptyEv@Base 0.9.23
 _ZNKSt4lessIPN11kyototycoon8PollableEEclERKS2_S5_@Base 0.9.23
 _ZNKSt6vectorISsSaISsEE3endEv@Base 0.9.23
 _ZNKSt6vectorISsSaISsEE4sizeEv@Base 0.9.23
 _ZNKSt6vectorISsSaISsEE5beginEv@Base 0.9.23
 _ZNKSt6vectorISsSaISsEE5emptyEv@Base 0.9.23
 _ZNKSt6vectorISsSaISsEEixEm@Base 0.9.23
 _ZNKSt8_Rb_treeIPN11kyototycoon8PollableES2_St9_IdentityIS2_ESt4lessIS2_ESaIS2_EE13get_allocatorEv@Base 0.9.23
 _ZNKSt8_Rb_treeIPN11kyototycoon8PollableES2_St9_IdentityIS2_ESt4lessIS2_ESaIS2_EE21_M_get_Node_allocatorEv@Base 0.9.23
 _ZNKSt8_Rb_treeIPN11kyototycoon8PollableES2_St9_IdentityIS2_ESt4lessIS2_ESaIS2_EE3endEv@Base 0.9.23
 _ZNKSt8_Rb_treeIPN11kyototycoon8PollableES2_St9_IdentityIS2_ESt4lessIS2_ESaIS2_EE4sizeEv@Base 0.9.23
 _ZNKSt8_Rb_treeIPN11kyototycoon8PollableES2_St9_IdentityIS2_ESt4lessIS2_ESaIS2_EE5beginEv@Base 0.9.23
 _ZNKSt8_Rb_treeIPN11kyototycoon8PollableES2_St9_IdentityIS2_ESt4lessIS2_ESaIS2_EE5emptyEv@Base 0.9.23
 _ZNKSt9_IdentityIPN11kyototycoon8PollableEEclERKS2_@Base 0.9.23
 _ZNSaIPN11kyototycoon8PollableEEC1ISt13_Rb_tree_nodeIS1_EEERKSaIT_E@Base 0.9.23
 _ZNSaIPN11kyototycoon8PollableEED1Ev@Base 0.9.23
 _ZNSaISt13_Rb_tree_nodeIPN11kyototycoon8PollableEEEC2Ev@Base 0.9.23
 _ZNSaISt13_Rb_tree_nodeIPN11kyototycoon8PollableEEED2Ev@Base 0.9.23
 _ZNSt17_Rb_tree_iteratorIPN11kyototycoon8PollableEEC1EPSt13_Rb_tree_nodeIS2_E@Base 0.9.23
 _ZNSt17_Rb_tree_iteratorIPN11kyototycoon8PollableEEmmEv@Base 0.9.23
 _ZNSt17_Rb_tree_iteratorIPN11kyototycoon8PollableEEppEi@Base 0.9.23
 _ZNSt23_Rb_tree_const_iteratorIPN11kyototycoon8PollableEEC1EPKSt13_Rb_tree_nodeIS2_E@Base 0.9.23
 _ZNSt23_Rb_tree_const_iteratorIPN11kyototycoon8PollableEEC1ERKSt17_Rb_tree_iteratorIS2_E@Base 0.9.23
 _ZNSt23_Rb_tree_const_iteratorIPN11kyototycoon8PollableEEppEi@Base 0.9.23
 _ZNSt3setIPN11kyototycoon8PollableESt4lessIS2_ESaIS2_EE5clearEv@Base 0.9.23
 _ZNSt3setIPN11kyototycoon8PollableESt4lessIS2_ESaIS2_EE5eraseERKS2_@Base 0.9.23
 _ZNSt3setIPN11kyototycoon8PollableESt4lessIS2_ESaIS2_EE6insertERKS2_@Base 0.9.23
 _ZNSt3setIPN11kyototycoon8PollableESt4lessIS2_ESaIS2_EEC1Ev@Base 0.9.23
 _ZNSt3setIPN11kyototycoon8PollableESt4lessIS2_ESaIS2_EED1Ev@Base 0.9.23
 _ZNSt4pairISt17_Rb_tree_iteratorIPN11kyototycoon8PollableEES4_EC1ERKS4_S7_@Base 0.9.23
 _ZNSt4pairISt17_Rb_tree_iteratorIPN11kyototycoon8PollableEEbEC1ERKS4_RKb@Base 0.9.23
 _ZNSt4pairISt23_Rb_tree_const_iteratorIPN11kyototycoon8PollableEEbEC1ERKS4_RKb@Base 0.9.23
 _ZNSt8_Rb_treeIPN11kyototycoon8PollableES2_St9_IdentityIS2_ESt4lessIS2_ESaIS2_EE10_M_insert_EPKSt18_Rb_tree_node_baseSB_RKS2_@Base 0.9.23
 _ZNSt8_Rb_treeIPN11kyototycoon8PollableES2_St9_IdentityIS2_ESt4lessIS2_ESaIS2_EE11_M_get_nodeEv@Base 0.9.23
 _ZNSt8_Rb_treeIPN11kyototycoon8PollableES2_St9_IdentityIS2_ESt4lessIS2_ESaIS2_EE11_M_leftmostEv@Base 0.9.23
 _ZNSt8_Rb_treeIPN11kyototycoon8PollableES2_St9_IdentityIS2_ESt4lessIS2_ESaIS2_EE11_M_put_nodeEPSt13_Rb_tree_nodeIS2_E@Base 0.9.23
 _ZNSt8_Rb_treeIPN11kyototycoon8PollableES2_St9_IdentityIS2_ESt4lessIS2_ESaIS2_EE11equal_rangeERKS2_@Base 0.9.23
 _ZNSt8_Rb_treeIPN11kyototycoon8PollableES2_St9_IdentityIS2_ESt4lessIS2_ESaIS2_EE12_M_rightmostEv@Base 0.9.23
 _ZNSt8_Rb_treeIPN11kyototycoon8PollableES2_St9_IdentityIS2_ESt4lessIS2_ESaIS2_EE13_Rb_tree_implIS6_Lb0EE13_M_initializeEv@Base 0.9.23
 _ZNSt8_Rb_treeIPN11kyototycoon8PollableES2_St9_IdentityIS2_ESt4lessIS2_ESaIS2_EE13_Rb_tree_implIS6_Lb0EEC1Ev@Base 0.9.23
 _ZNSt8_Rb_treeIPN11kyototycoon8PollableES2_St9_IdentityIS2_ESt4lessIS2_ESaIS2_EE13_Rb_tree_implIS6_Lb0EED1Ev@Base 0.9.23
 _ZNSt8_Rb_treeIPN11kyototycoon8PollableES2_St9_IdentityIS2_ESt4lessIS2_ESaIS2_EE14_M_create_nodeERKS2_@Base 0.9.23
 _ZNSt8_Rb_treeIPN11kyototycoon8PollableES2_St9_IdentityIS2_ESt4lessIS2_ESaIS2_EE14_M_lower_boundEPSt13_Rb_tree_nodeIS2_ESB_RKS2_@Base 0.9.23
 _ZNSt8_Rb_treeIPN11kyototycoon8PollableES2_St9_IdentityIS2_ESt4lessIS2_ESaIS2_EE14_M_upper_boundEPSt13_Rb_tree_nodeIS2_ESB_RKS2_@Base 0.9.23
 _ZNSt8_Rb_treeIPN11kyototycoon8PollableES2_St9_IdentityIS2_ESt4lessIS2_ESaIS2_EE15_M_destroy_nodeEPSt13_Rb_tree_nodeIS2_E@Base 0.9.23
 _ZNSt8_Rb_treeIPN11kyototycoon8PollableES2_St9_IdentityIS2_ESt4lessIS2_ESaIS2_EE16_M_insert_uniqueERKS2_@Base 0.9.23
 _ZNSt8_Rb_treeIPN11kyototycoon8PollableES2_St9_IdentityIS2_ESt4lessIS2_ESaIS2_EE3endEv@Base 0.9.23
 _ZNSt8_Rb_treeIPN11kyototycoon8PollableES2_St9_IdentityIS2_ESt4lessIS2_ESaIS2_EE5beginEv@Base 0.9.23
 _ZNSt8_Rb_treeIPN11kyototycoon8PollableES2_St9_IdentityIS2_ESt4lessIS2_ESaIS2_EE5clearEv@Base 0.9.23
 _ZNSt8_Rb_treeIPN11kyototycoon8PollableES2_St9_IdentityIS2_ESt4lessIS2_ESaIS2_EE5eraseERKS2_@Base 0.9.23
 _ZNSt8_Rb_treeIPN11kyototycoon8PollableES2_St9_IdentityIS2_ESt4lessIS2_ESaIS2_EE5eraseESt17_Rb_tree_iteratorIS2_E@Base 0.9.23
 _ZNSt8_Rb_treeIPN11kyototycoon8PollableES2_St9_IdentityIS2_ESt4lessIS2_ESaIS2_EE5eraseESt17_Rb_tree_iteratorIS2_ESA_@Base 0.9.23
 _ZNSt8_Rb_treeIPN11kyototycoon8PollableES2_St9_IdentityIS2_ESt4lessIS2_ESaIS2_EE6_M_endEv@Base 0.9.23
 _ZNSt8_Rb_treeIPN11kyototycoon8PollableES2_St9_IdentityIS2_ESt4lessIS2_ESaIS2_EE6_S_keyEPKSt13_Rb_tree_nodeIS2_E@Base 0.9.23
 _ZNSt8_Rb_treeIPN11kyototycoon8PollableES2_St9_IdentityIS2_ESt4lessIS2_ESaIS2_EE6_S_keyEPKSt18_Rb_tree_node_base@Base 0.9.23
 _ZNSt8_Rb_treeIPN11kyototycoon8PollableES2_St9_IdentityIS2_ESt4lessIS2_ESaIS2_EE7_M_rootEv@Base 0.9.23
 _ZNSt8_Rb_treeIPN11kyototycoon8PollableES2_St9_IdentityIS2_ESt4lessIS2_ESaIS2_EE7_S_leftEPSt18_Rb_tree_node_base@Base 0.9.23
 _ZNSt8_Rb_treeIPN11kyototycoon8PollableES2_St9_IdentityIS2_ESt4lessIS2_ESaIS2_EE8_M_beginEv@Base 0.9.23
 _ZNSt8_Rb_treeIPN11kyototycoon8PollableES2_St9_IdentityIS2_ESt4lessIS2_ESaIS2_EE8_M_eraseEPSt13_Rb_tree_nodeIS2_E@Base 0.9.23
 _ZNSt8_Rb_treeIPN11kyototycoon8PollableES2_St9_IdentityIS2_ESt4lessIS2_ESaIS2_EE8_S_rightEPSt18_Rb_tree_node_base@Base 0.9.23
 _ZNSt8_Rb_treeIPN11kyototycoon8PollableES2_St9_IdentityIS2_ESt4lessIS2_ESaIS2_EE8_S_valueEPKSt13_Rb_tree_nodeIS2_E@Base 0.9.23
 _ZNSt8_Rb_treeIPN11kyototycoon8PollableES2_St9_IdentityIS2_ESt4lessIS2_ESaIS2_EE8_S_valueEPKSt18_Rb_tree_node_base@Base 0.9.23
 _ZNSt8_Rb_treeIPN11kyototycoon8PollableES2_St9_IdentityIS2_ESt4lessIS2_ESaIS2_EEC1Ev@Base 0.9.23
 _ZNSt8_Rb_treeIPN11kyototycoon8PollableES2_St9_IdentityIS2_ESt4lessIS2_ESaIS2_EED1Ev@Base 0.9.23
 _ZTIN11kyototycoon12ServerSocketE@Base 0.9.23
 _ZTIN11kyototycoon6SocketE@Base 0.9.23
 _ZTIN11kyototycoon8PollableE@Base 0.9.23
 _ZTSN11kyototycoon12ServerSocketE@Base 0.9.23
 _ZTSN11kyototycoon6SocketE@Base 0.9.23
 _ZTSN11kyototycoon8PollableE@Base 0.9.23
 _ZTVN11kyototycoon12ServerSocketE@Base 0.9.23
 _ZTVN11kyototycoon6SocketE@Base 0.9.23
 _ZTVN11kyototycoon8PollableE@Base 0.9.23
 _ZnwmPv@Base 0.9.23
